target datalayout = "e-m:e-p270:32:32-p271:32:32-p272:64:64-i64:64-i128:128-f80:128-n8:16:32:64-S128"
target triple = "x86_64-pc-linux-gnu"

%"struct.cv::softdouble" = type { i64 }
%union.anon.0 = type { i64 }

; Function Attrs: mustprogress nounwind uwtable
define internal noundef i64 @_ZN2cvL20softfloat_roundToI64Ebmmhb(i1 noundef zeroext %0, i64 noundef %1, i64 noundef %2, i8 noundef zeroext %3, i1 noundef zeroext %4) #1 {
  %6 = alloca i64, align 8
  %7 = alloca i8, align 1
  %8 = alloca i64, align 8
  %9 = alloca i64, align 8
  %10 = alloca i8, align 1
  %11 = alloca i8, align 1
  %12 = alloca i8, align 1
  %13 = alloca i8, align 1
  %14 = alloca %union.anon.0, align 8
  %15 = alloca i64, align 8
  %16 = zext i1 %0 to i8
  store i8 %16, ptr %7, align 1
  store i64 %1, ptr %8, align 8
  store i64 %2, ptr %9, align 8
  store i8 %3, ptr %10, align 1
  %17 = zext i1 %4 to i8
  store i8 %17, ptr %11, align 1
  %18 = load i8, ptr %10, align 1
  %19 = zext i8 %18 to i32
  %20 = icmp eq i32 %19, 0
  %21 = zext i1 %20 to i8
  store i8 %21, ptr %12, align 1
  %22 = load i64, ptr %9, align 8
  %23 = icmp ule i64 -9223372036854775808, %22
  %24 = zext i1 %23 to i8
  store i8 %24, ptr %13, align 1
  %25 = load i8, ptr %12, align 1
  %26 = trunc i8 %25 to i1
  br i1 %26, label %44, label %27

27:                                               ; preds = %5
  %28 = load i8, ptr %10, align 1
  %29 = zext i8 %28 to i32
  %30 = icmp ne i32 %29, 4
  br i1 %30, label %31, label %44

31:                                               ; preds = %27
  %32 = load i8, ptr %10, align 1
  %33 = zext i8 %32 to i32
  %34 = load i8, ptr %7, align 1
  %35 = trunc i8 %34 to i1
  %36 = select i1 %35, i32 2, i32 3
  %37 = icmp eq i32 %33, %36
  br i1 %37, label %38, label %41

38:                                               ; preds = %31
  %39 = load i64, ptr %9, align 8
  %40 = icmp ne i64 %39, 0
  br label %41

41:                                               ; preds = %38, %31
  %42 = phi i1 [ false, %31 ], [ %40, %38 ]
  %43 = zext i1 %42 to i8
  store i8 %43, ptr %13, align 1
  br label %44

44:                                               ; preds = %41, %27, %5
  %45 = load i8, ptr %13, align 1
  %46 = trunc i8 %45 to i1
  br i1 %46, label %47, label %67

47:                                               ; preds = %44
  %48 = load i64, ptr %8, align 8
  %49 = add i64 %48, 1
  store i64 %49, ptr %8, align 8
  %50 = load i64, ptr %8, align 8
  %51 = icmp ne i64 %50, 0
  br i1 %51, label %53, label %52

52:                                               ; preds = %47
  br label %100

53:                                               ; preds = %47
  %54 = load i64, ptr %9, align 8
  %55 = and i64 %54, 9223372036854775807
  %56 = icmp ne i64 %55, 0
  %57 = xor i1 %56, true
  %58 = zext i1 %57 to i32
  %59 = load i8, ptr %12, align 1
  %60 = trunc i8 %59 to i1
  %61 = zext i1 %60 to i32
  %62 = and i32 %58, %61
  %63 = sext i32 %62 to i64
  %64 = xor i64 %63, -1
  %65 = load i64, ptr %8, align 8
  %66 = and i64 %65, %64
  store i64 %66, ptr %8, align 8
  br label %67

67:                                               ; preds = %53, %44
  %68 = load i8, ptr %7, align 1
  %69 = trunc i8 %68 to i1
  br i1 %69, label %70, label %74

70:                                               ; preds = %67
  %71 = load i64, ptr %8, align 8
  %72 = xor i64 %71, -1
  %73 = add i64 %72, 1
  br label %76

74:                                               ; preds = %67
  %75 = load i64, ptr %8, align 8
  br label %76

76:                                               ; preds = %74, %70
  %77 = phi i64 [ %73, %70 ], [ %75, %74 ]
  store i64 %77, ptr %14, align 8
  %78 = load i64, ptr %14, align 8
  store i64 %78, ptr %15, align 8
  %79 = load i64, ptr %15, align 8
  %80 = icmp ne i64 %79, 0
  br i1 %80, label %81, label %91

81:                                               ; preds = %76
  %82 = load i64, ptr %15, align 8
  %83 = icmp slt i64 %82, 0
  %84 = zext i1 %83 to i32
  %85 = load i8, ptr %7, align 1
  %86 = trunc i8 %85 to i1
  %87 = zext i1 %86 to i32
  %88 = xor i32 %84, %87
  %89 = icmp ne i32 %88, 0
  br i1 %89, label %90, label %91

90:                                               ; preds = %81
  br label %100

91:                                               ; preds = %81, %76
  %92 = load i8, ptr %11, align 1
  %93 = trunc i8 %92 to i1
  br i1 %93, label %94, label %98

94:                                               ; preds = %91
  %95 = load i64, ptr %9, align 8
  %96 = icmp ne i64 %95, 0
  br i1 %96, label %97, label %98

97:                                               ; preds = %94
  call void @_ZN2cvL10raiseFlagsEh(i8 noundef zeroext 1)
  br label %98

98:                                               ; preds = %97, %94, %91
  %99 = load i64, ptr %15, align 8
  store i64 %99, ptr %6, align 8
  br label %104

100:                                              ; preds = %90, %52
  call void @_ZN2cvL10raiseFlagsEh(i8 noundef zeroext 16)
  %101 = load i8, ptr %7, align 1
  %102 = trunc i8 %101 to i1
  %103 = select i1 %102, i64 -9223372036854775808, i64 9223372036854775807
  store i64 %103, ptr %6, align 8
  br label %104

104:                                              ; preds = %100, %98
  %105 = load i64, ptr %6, align 8
  ret i64 %105
}

; Function Attrs: mustprogress nounwind uwtable
define internal void @_ZN2cvL10raiseFlagsEh(i8 noundef zeroext %0) #1 {
  %2 = alloca i8, align 1
  store i8 %0, ptr %2, align 1
  ret void
}

; Function Attrs: mustprogress uwtable
define internal noundef i64 @_ZN2cvL10f64_to_i64ENS_10softdoubleEhb(ptr noundef %0, i8 noundef zeroext %1, i1 noundef zeroext %2) #0 {
  %4 = alloca i64, align 8
  %5 = alloca ptr, align 8
  %6 = alloca i8, align 1
  %7 = alloca i8, align 1
  %8 = alloca i64, align 8
  %9 = alloca i8, align 1
  %10 = alloca i64, align 8
  %11 = alloca i64, align 8
  %12 = alloca i64, align 8
  %13 = alloca i8, align 1
  %14 = alloca i64, align 8
  store ptr %0, ptr %5, align 8
  store i8 %1, ptr %6, align 1
  %15 = zext i1 %2 to i8
  store i8 %15, ptr %7, align 1
  %16 = getelementptr inbounds %"struct.cv::softdouble", ptr %0, i32 0, i32 0
  %17 = load i64, ptr %16, align 8
  store i64 %17, ptr %8, align 8
  %18 = load i64, ptr %8, align 8
  %19 = lshr i64 %18, 63
  %20 = icmp ne i64 %19, 0
  %21 = zext i1 %20 to i8
  store i8 %21, ptr %9, align 1
  %22 = load i64, ptr %8, align 8
  %23 = lshr i64 %22, 52
  %24 = and i64 %23, 2047
  store i64 %24, ptr %10, align 8
  %25 = load i64, ptr %8, align 8
  %26 = and i64 %25, 4503599627370495
  store i64 %26, ptr %11, align 8
  %27 = load i64, ptr %10, align 8
  %28 = icmp eq i64 %27, 2047
  br i1 %28, label %29, label %33

29:                                               ; preds = %3
  %30 = load i64, ptr %11, align 8
  %31 = icmp ne i64 %30, 0
  br i1 %31, label %32, label %33

32:                                               ; preds = %29
  store i8 0, ptr %9, align 1
  br label %33

33:                                               ; preds = %32, %29, %3
  %34 = load i64, ptr %10, align 8
  %35 = icmp ne i64 %34, 0
  br i1 %35, label %36, label %39

36:                                               ; preds = %33
  %37 = load i64, ptr %11, align 8
  %38 = or i64 %37, 4503599627370496
  store i64 %38, ptr %11, align 8
  br label %39

39:                                               ; preds = %36, %33
  %40 = load i64, ptr %10, align 8
  %41 = sub nsw i64 1075, %40
  store i64 %41, ptr %12, align 8
  %42 = load i64, ptr %12, align 8
  %43 = icmp sle i64 %42, 0
  br i1 %43, label %44, label %73

44:                                               ; preds = %39
  %45 = load i64, ptr %12, align 8
  %46 = icmp sge i64 %45, -11
  %47 = zext i1 %46 to i8
  store i8 %47, ptr %13, align 1
  %48 = load i8, ptr %13, align 1
  %49 = trunc i8 %48 to i1
  br i1 %49, label %50, label %69

50:                                               ; preds = %44
  %51 = load i64, ptr %11, align 8
  %52 = load i64, ptr %12, align 8
  %53 = sub nsw i64 0, %52
  %54 = shl i64 %51, %53
  store i64 %54, ptr %14, align 8
  %55 = load i64, ptr %14, align 8
  %56 = and i64 %55, -9223372036854775808
  %57 = icmp eq i64 0, %56
  br i1 %57, label %58, label %68

58:                                               ; preds = %50
  %59 = load i8, ptr %9, align 1
  %60 = trunc i8 %59 to i1
  br i1 %60, label %61, label %64

61:                                               ; preds = %58
  %62 = load i64, ptr %14, align 8
  %63 = sub nsw i64 0, %62
  br label %66

64:                                               ; preds = %58
  %65 = load i64, ptr %14, align 8
  br label %66

66:                                               ; preds = %64, %61
  %67 = phi i64 [ %63, %61 ], [ %65, %64 ]
  store i64 %67, ptr %4, align 8
  br label %108

68:                                               ; preds = %50
  br label %69

69:                                               ; preds = %68, %44
  call void @_ZN2cvL10raiseFlagsEh(i8 noundef zeroext 16)
  %70 = load i8, ptr %9, align 1
  %71 = trunc i8 %70 to i1
  %72 = select i1 %71, i64 -9223372036854775808, i64 9223372036854775807
  store i64 %72, ptr %4, align 8
  br label %108

73:                                               ; preds = %39
  %74 = load i64, ptr %12, align 8
  %75 = icmp slt i64 %74, 64
  br i1 %75, label %76, label %91

76:                                               ; preds = %73
  %77 = load i8, ptr %9, align 1
  %78 = trunc i8 %77 to i1
  %79 = load i64, ptr %11, align 8
  %80 = load i64, ptr %12, align 8
  %81 = lshr i64 %79, %80
  %82 = load i64, ptr %11, align 8
  %83 = load i64, ptr %12, align 8
  %84 = sub nsw i64 0, %83
  %85 = and i64 %84, 63
  %86 = shl i64 %82, %85
  %87 = load i8, ptr %6, align 1
  %88 = load i8, ptr %7, align 1
  %89 = trunc i8 %88 to i1
  %90 = call noundef i64 @_ZN2cvL20softfloat_roundToI64Ebmmhb(i1 noundef zeroext %78, i64 noundef %81, i64 noundef %86, i8 noundef zeroext %87, i1 noundef zeroext %89)
  store i64 %90, ptr %4, align 8
  br label %108

91:                                               ; preds = %73
  %92 = load i8, ptr %9, align 1
  %93 = trunc i8 %92 to i1
  %94 = load i64, ptr %12, align 8
  %95 = icmp eq i64 %94, 64
  br i1 %95, label %96, label %98

96:                                               ; preds = %91
  %97 = load i64, ptr %11, align 8
  br label %102

98:                                               ; preds = %91
  %99 = load i64, ptr %11, align 8
  %100 = icmp ne i64 %99, 0
  %101 = zext i1 %100 to i64
  br label %102

102:                                              ; preds = %98, %96
  %103 = phi i64 [ %97, %96 ], [ %101, %98 ]
  %104 = load i8, ptr %6, align 1
  %105 = load i8, ptr %7, align 1
  %106 = trunc i8 %105 to i1
  %107 = call noundef i64 @_ZN2cvL20softfloat_roundToI64Ebmmhb(i1 noundef zeroext %93, i64 noundef 0, i64 noundef %103, i8 noundef zeroext %104, i1 noundef zeroext %106)
  store i64 %107, ptr %4, align 8
  br label %108

108:                                              ; preds = %102, %76, %69, %66
  %109 = load i64, ptr %4, align 8
  ret i64 %109
}

; Function Attrs: mustprogress nounwind uwtable
define linkonce_odr hidden void @_ZN2cv10softdoubleC2ERKS0_(ptr noundef nonnull align 8 dereferenceable(8) %0, ptr noundef nonnull align 8 dereferenceable(8) %1) unnamed_addr #1 comdat align 2 {
  %3 = alloca ptr, align 8
  %4 = alloca ptr, align 8
  store ptr %0, ptr %3, align 8
  store ptr %1, ptr %4, align 8
  %5 = load ptr, ptr %3, align 8
  %6 = load ptr, ptr %4, align 8
  %7 = getelementptr inbounds %"struct.cv::softdouble", ptr %6, i32 0, i32 0
  %8 = load i64, ptr %7, align 8
  %9 = getelementptr inbounds %"struct.cv::softdouble", ptr %5, i32 0, i32 0
  store i64 %8, ptr %9, align 8
  ret void
}

; Function Attrs: mustprogress uwtable
define noundef i64 @_Z9cvRound64RKN2cv10softdoubleE(ptr noundef nonnull align 8 dereferenceable(8) %0) #0 {
  %2 = alloca ptr, align 8
  %3 = alloca %"struct.cv::softdouble", align 8
  store ptr %0, ptr %2, align 8
  %4 = load ptr, ptr %2, align 8
  call void @_ZN2cv10softdoubleC2ERKS0_(ptr noundef nonnull align 8 dereferenceable(8) %3, ptr noundef nonnull align 8 dereferenceable(8) %4)
  %5 = call noundef i64 @_ZN2cvL10f64_to_i64ENS_10softdoubleEhb(ptr noundef %3, i8 noundef zeroext 0, i1 noundef zeroext false)
  ret i64 %5
}