; Function Attrs: mustprogress nofree norecurse nosync nounwind willreturn memory(argmem: read) uwtable
define noundef i64 @_Z9cvRound64RKN2cv10softdoubleE(ptr nocapture noundef nonnull readonly align 8 dereferenceable(8) %0) local_unnamed_addr #4 {
  %2 = load i64, ptr %0, align 8
  %.lobit.i = lshr i64 %2, 63
  %3 = trunc nuw nsw i64 %.lobit.i to i8
  %4 = lshr i64 %2, 52
  %5 = and i64 %4, 2047
  %6 = and i64 %2, 4503599627370495
  %7 = icmp eq i64 %5, 2047
  %8 = icmp ne i64 %6, 0
  %or.cond.i = and i1 %8, %7
  %spec.select.i = select i1 %or.cond.i, i8 0, i8 %3
  %9 = or disjoint i64 %6, 4503599627370496
  %.neg.i = add nuw nsw i64 %4, 13
  %.neg37.i = add nsw i64 %5, -1075
  %10 = sub nsw i64 1075, %5
  %11 = icmp ugt i64 %5, 1074
  br i1 %11, label %12, label %24

12:                                               ; preds = %1
  %13 = icmp ult i64 %5, 1087
  br i1 %13, label %14, label %21

14:                                               ; preds = %12
  %15 = shl nuw i64 %9, %.neg37.i
  %16 = icmp sgt i64 %15, -1
  br i1 %16, label %17, label %21

17:                                               ; preds = %14
  %18 = trunc nuw i8 %spec.select.i to i1
  %19 = sub nsw i64 0, %15
  %20 = select i1 %18, i64 %19, i64 %15
  br label %_ZN2cvL10f64_to_i64ENS_10softdoubleEhb.exit

21:                                               ; preds = %14, %12
  %22 = trunc nuw i8 %spec.select.i to i1
  %23 = select i1 %22, i64 -9223372036854775808, i64 9223372036854775807
  br label %_ZN2cvL10f64_to_i64ENS_10softdoubleEhb.exit

24:                                               ; preds = %1
  %25 = icmp ugt i64 %5, 1011
  br i1 %25, label %26, label %_ZN2cvL10f64_to_i64ENS_10softdoubleEhb.exit

26:                                               ; preds = %24
  %27 = trunc nuw i8 %spec.select.i to i1
  %28 = lshr i64 %9, %10
  %29 = and i64 %.neg.i, 63
  %30 = shl i64 %9, %29
  %31 = icmp slt i64 %30, 0
  br i1 %31, label %32, label %_ZN2cvL20softfloat_roundToI64Ebmmhb.exit.i

32:                                               ; preds = %26
  %33 = add nuw nsw i64 %28, 1
  %34 = and i64 %30, 9223372036854775807
  %.not.i.i = icmp eq i64 %34, 0
  %35 = zext i1 %.not.i.i to i64
  %36 = xor i64 %35, -1
  %37 = and i64 %33, %36
  br label %_ZN2cvL20softfloat_roundToI64Ebmmhb.exit.i

_ZN2cvL20softfloat_roundToI64Ebmmhb.exit.i:       ; preds = %32, %26
  %.028.i.i = phi i64 [ %37, %32 ], [ %28, %26 ]
  %38 = sub nsw i64 0, %.028.i.i
  %39 = select i1 %27, i64 %38, i64 %.028.i.i
  %.not33.i.i = icmp eq i64 %.028.i.i, 0
  %40 = icmp sgt i64 %39, -1
  %.not3435.i.i = xor i1 %40, %27
  %or.cond.i.i = select i1 %.not33.i.i, i1 true, i1 %.not3435.i.i
  %41 = select i1 %27, i64 -9223372036854775808, i64 9223372036854775807
  %spec.select.i.i = select i1 %or.cond.i.i, i64 %39, i64 %41
  br label %_ZN2cvL10f64_to_i64ENS_10softdoubleEhb.exit

_ZN2cvL10f64_to_i64ENS_10softdoubleEhb.exit:      ; preds = %17, %21, %24, %_ZN2cvL20softfloat_roundToI64Ebmmhb.exit.i
  %.0.i = phi i64 [ %20, %17 ], [ %23, %21 ], [ %spec.select.i.i, %_ZN2cvL20softfloat_roundToI64Ebmmhb.exit.i ], [ 0, %24 ]
  ret i64 %.0.i
}